target datalayout = "e-m:e-p270:32:32-p271:32:32-p272:64:64-i64:64-i128:128-f80:128-n8:16:32:64-S128"
target triple = "x86_64-pc-linux-gnu"

%struct.QVirtio9PDevice = type { %struct.QOSGraphObject, %struct.QVirtio9P }
%struct.QOSGraphObject = type { ptr, ptr, ptr, ptr, ptr }
%struct.QVirtio9P = type { ptr, ptr }
%struct.QVirtioDevice = type { ptr, i16, i64, i8, i8 }

@alloc = internal global ptr null, align 8

; Function Attrs: nounwind sspstrong uwtable
define internal void @virtio_9p_cleanup(ptr noundef %0) #0 {
  %2 = alloca ptr, align 8
  store ptr %0, ptr %2, align 8
  %3 = load ptr, ptr %2, align 8
  %4 = getelementptr inbounds nuw %struct.QVirtio9P, ptr %3, i32 0, i32 0
  %5 = load ptr, ptr %4, align 8
  %6 = getelementptr inbounds nuw %struct.QVirtioDevice, ptr %5, i32 0, i32 0
  %7 = load ptr, ptr %6, align 8
  %8 = load ptr, ptr %2, align 8
  %9 = getelementptr inbounds nuw %struct.QVirtio9P, ptr %8, i32 0, i32 1
  %10 = load ptr, ptr %9, align 8
  %11 = load ptr, ptr @alloc, align 8
  call void @qvirtqueue_cleanup(ptr noundef %7, ptr noundef %10, ptr noundef %11)
  ret void
}

; Function Attrs: nounwind sspstrong uwtable
define internal void @virtio_9p_device_destructor(ptr noundef %0) #0 {
  %2 = alloca ptr, align 8
  %3 = alloca ptr, align 8
  %4 = alloca ptr, align 8
  store ptr %0, ptr %2, align 8
  call void @llvm.lifetime.start.p0(i64 8, ptr %3) #14
  %5 = load ptr, ptr %2, align 8
  store ptr %5, ptr %3, align 8
  call void @llvm.lifetime.start.p0(i64 8, ptr %4) #14
  %6 = load ptr, ptr %3, align 8
  %7 = getelementptr inbounds nuw %struct.QVirtio9PDevice, ptr %6, i32 0, i32 1
  store ptr %7, ptr %4, align 8
  %8 = load ptr, ptr %4, align 8
  call void @virtio_9p_cleanup(ptr noundef %8)
  call void @llvm.lifetime.end.p0(i64 8, ptr %4) #14
  call void @llvm.lifetime.end.p0(i64 8, ptr %3) #14
  ret void
}