; Function Attrs: nounwind sspstrong uwtable
define internal void @virtio_9p_device_destructor(ptr noundef readonly captures(none) %0) #0 {
  %2 = getelementptr inbounds nuw i8, ptr %0, i64 40
  %.val = load ptr, ptr %2, align 8
  %3 = getelementptr i8, ptr %0, i64 48
  %.val3 = load ptr, ptr %3, align 8
  %.val.val = load ptr, ptr %.val, align 8
  %4 = load ptr, ptr @alloc, align 8
  tail call void @qvirtqueue_cleanup(ptr noundef %.val.val, ptr noundef %.val3, ptr noundef %4) #13
  ret void
}